; Function Attrs: uwtable
define noundef zeroext i1 @_ZTv0_n56_N3nix16BinaryCacheStore19isValidPathUncachedERKNS_9StorePathE(ptr noundef %0, ptr nocapture noundef nonnull readonly align 8 dereferenceable(32) %1) unnamed_addr #4 align 2 personality ptr @__gxx_personality_v0 {
  %3 = alloca %"class.std::__cxx11::basic_string", align 8
  %4 = load ptr, ptr %0, align 8
  %5 = getelementptr inbounds i8, ptr %4, i64 -56
  %6 = load i64, ptr %5, align 8
  %7 = getelementptr inbounds i8, ptr %0, i64 %6
  call void @llvm.lifetime.start.p0(i64 32, ptr nonnull %3)
  call void @_ZN3nix16BinaryCacheStore14narInfoFileForB5cxx11ERKNS_9StorePathE(ptr dead_on_unwind nonnull writable sret(%"class.std::__cxx11::basic_string") align 8 %3, ptr nonnull align 8 poison, ptr noundef nonnull align 8 dereferenceable(32) %1)
  %8 = load ptr, ptr %7, align 8
  %9 = getelementptr inbounds i8, ptr %8, i64 32
  %10 = load ptr, ptr %9, align 8
  %11 = invoke noundef zeroext i1 %10(ptr noundef nonnull align 8 dereferenceable(80) %7, ptr noundef nonnull align 8 dereferenceable(32) %3)
          to label %12 unwind label %19

12:                                               ; preds = %2
  %13 = load ptr, ptr %3, align 8
  %14 = getelementptr inbounds i8, ptr %3, i64 16
  %15 = icmp eq ptr %13, %14
  br i1 %15, label %_ZNKSt7__cxx1112basic_stringIcSt11char_traitsIcESaIcEE11_M_is_localEv.exit.thread.i.i.i, label %_ZNKSt7__cxx1112basic_stringIcSt11char_traitsIcESaIcEE11_M_is_localEv.exit.i.i.i

_ZNKSt7__cxx1112basic_stringIcSt11char_traitsIcESaIcEE11_M_is_localEv.exit.thread.i.i.i: ; preds = %12
  %16 = getelementptr inbounds i8, ptr %3, i64 8
  %17 = load i64, ptr %16, align 8
  %18 = icmp ult i64 %17, 16
  call void @llvm.assume(i1 %18)
  br label %_ZN3nix16BinaryCacheStore19isValidPathUncachedERKNS_9StorePathE.exit

_ZNKSt7__cxx1112basic_stringIcSt11char_traitsIcESaIcEE11_M_is_localEv.exit.i.i.i: ; preds = %12
  call void @_ZdlPv(ptr noundef %13) #36
  br label %_ZN3nix16BinaryCacheStore19isValidPathUncachedERKNS_9StorePathE.exit

19:                                               ; preds = %2
  %20 = landingpad { ptr, i32 }
          cleanup
  call void @_ZNSt7__cxx1112basic_stringIcSt11char_traitsIcESaIcEED2Ev(ptr noundef nonnull align 8 dereferenceable(32) %3) #33
  resume { ptr, i32 } %20

_ZN3nix16BinaryCacheStore19isValidPathUncachedERKNS_9StorePathE.exit: ; preds = %_ZNKSt7__cxx1112basic_stringIcSt11char_traitsIcESaIcEE11_M_is_localEv.exit.thread.i.i.i, %_ZNKSt7__cxx1112basic_stringIcSt11char_traitsIcESaIcEE11_M_is_localEv.exit.i.i.i
  call void @_ZNSaIcED2Ev(ptr noundef nonnull align 1 dereferenceable(1) %3) #33
  call void @llvm.lifetime.end.p0(i64 32, ptr nonnull %3)
  ret i1 %11
}